target datalayout = "e-m:e-p270:32:32-p271:32:32-p272:64:64-i64:64-i128:128-f80:128-n8:16:32:64-S128"
target triple = "x86_64-pc-linux-gnu"

%struct.Acb_Par_t_ = type { i32, i32, i32, i32, i32, i32, i32, i32, i32, i32, i32, i32, i32, i32 }

; Function Attrs: nounwind uwtable
define void @Acb_ParSetDefault(ptr noundef %0) #0 {
  %2 = alloca ptr, align 8
  store ptr %0, ptr %2, align 8, !tbaa !126
  %3 = load ptr, ptr %2, align 8, !tbaa !126
  call void @llvm.memset.p0.i64(ptr align 4 %3, i8 0, i64 56, i1 false)
  %4 = load ptr, ptr %2, align 8, !tbaa !126
  %5 = getelementptr inbounds nuw %struct.Acb_Par_t_, ptr %4, i32 0, i32 0
  store i32 4, ptr %5, align 4, !tbaa !128
  %6 = load ptr, ptr %2, align 8, !tbaa !126
  %7 = getelementptr inbounds nuw %struct.Acb_Par_t_, ptr %6, i32 0, i32 1
  store i32 2, ptr %7, align 4, !tbaa !130
  %8 = load ptr, ptr %2, align 8, !tbaa !126
  %9 = getelementptr inbounds nuw %struct.Acb_Par_t_, ptr %8, i32 0, i32 2
  store i32 3, ptr %9, align 4, !tbaa !131
  %10 = load ptr, ptr %2, align 8, !tbaa !126
  %11 = getelementptr inbounds nuw %struct.Acb_Par_t_, ptr %10, i32 0, i32 3
  store i32 20, ptr %11, align 4, !tbaa !132
  %12 = load ptr, ptr %2, align 8, !tbaa !126
  %13 = getelementptr inbounds nuw %struct.Acb_Par_t_, ptr %12, i32 0, i32 4
  store i32 100, ptr %13, align 4, !tbaa !133
  %14 = load ptr, ptr %2, align 8, !tbaa !126
  %15 = getelementptr inbounds nuw %struct.Acb_Par_t_, ptr %14, i32 0, i32 5
  store i32 0, ptr %15, align 4, !tbaa !134
  %16 = load ptr, ptr %2, align 8, !tbaa !126
  %17 = getelementptr inbounds nuw %struct.Acb_Par_t_, ptr %16, i32 0, i32 6
  store i32 0, ptr %17, align 4, !tbaa !135
  %18 = load ptr, ptr %2, align 8, !tbaa !126
  %19 = getelementptr inbounds nuw %struct.Acb_Par_t_, ptr %18, i32 0, i32 7
  store i32 0, ptr %19, align 4, !tbaa !136
  %20 = load ptr, ptr %2, align 8, !tbaa !126
  %21 = getelementptr inbounds nuw %struct.Acb_Par_t_, ptr %20, i32 0, i32 9
  store i32 0, ptr %21, align 4, !tbaa !137
  %22 = load ptr, ptr %2, align 8, !tbaa !126
  %23 = getelementptr inbounds nuw %struct.Acb_Par_t_, ptr %22, i32 0, i32 10
  store i32 1, ptr %23, align 4, !tbaa !138
  %24 = load ptr, ptr %2, align 8, !tbaa !126
  %25 = getelementptr inbounds nuw %struct.Acb_Par_t_, ptr %24, i32 0, i32 8
  store i32 0, ptr %25, align 4, !tbaa !139
  %26 = load ptr, ptr %2, align 8, !tbaa !126
  %27 = getelementptr inbounds nuw %struct.Acb_Par_t_, ptr %26, i32 0, i32 11
  store i32 0, ptr %27, align 4, !tbaa !140
  %28 = load ptr, ptr %2, align 8, !tbaa !126
  %29 = getelementptr inbounds nuw %struct.Acb_Par_t_, ptr %28, i32 0, i32 12
  store i32 0, ptr %29, align 4, !tbaa !141
  %30 = load ptr, ptr %2, align 8, !tbaa !126
  %31 = getelementptr inbounds nuw %struct.Acb_Par_t_, ptr %30, i32 0, i32 13
  store i32 0, ptr %31, align 4, !tbaa !142
  ret void
}