; Function Attrs: mustprogress nofree norecurse nosync nounwind willreturn memory(argmem: write) uwtable
define void @Acb_ParSetDefault(ptr noundef writeonly captures(none) initializes((0, 56)) %0) local_unnamed_addr #6 {
  store i32 4, ptr %0, align 4, !tbaa !128
  %2 = getelementptr inbounds nuw i8, ptr %0, i64 4
  store i32 2, ptr %2, align 4, !tbaa !130
  %3 = getelementptr inbounds nuw i8, ptr %0, i64 8
  store i32 3, ptr %3, align 4, !tbaa !131
  %4 = getelementptr inbounds nuw i8, ptr %0, i64 12
  store i32 20, ptr %4, align 4, !tbaa !132
  %5 = getelementptr inbounds nuw i8, ptr %0, i64 16
  store i32 100, ptr %5, align 4, !tbaa !133
  %6 = getelementptr inbounds nuw i8, ptr %0, i64 20
  store i32 0, ptr %6, align 4, !tbaa !134
  %7 = getelementptr inbounds nuw i8, ptr %0, i64 24
  store i32 0, ptr %7, align 4, !tbaa !135
  %8 = getelementptr inbounds nuw i8, ptr %0, i64 28
  store i32 0, ptr %8, align 4, !tbaa !136
  %9 = getelementptr inbounds nuw i8, ptr %0, i64 36
  store i32 0, ptr %9, align 4, !tbaa !137
  %10 = getelementptr inbounds nuw i8, ptr %0, i64 40
  store i32 1, ptr %10, align 4, !tbaa !138
  %11 = getelementptr inbounds nuw i8, ptr %0, i64 32
  store i32 0, ptr %11, align 4, !tbaa !139
  %12 = getelementptr inbounds nuw i8, ptr %0, i64 44
  store i32 0, ptr %12, align 4, !tbaa !140
  %13 = getelementptr inbounds nuw i8, ptr %0, i64 48
  store i32 0, ptr %13, align 4, !tbaa !141
  %14 = getelementptr inbounds nuw i8, ptr %0, i64 52
  store i32 0, ptr %14, align 4, !tbaa !142
  ret void
}